; Function Attrs: mustprogress uwtable
define hidden void @_ZNK19OpenColorIO_v2_4dev16CIOPOciozArchive18getFastLutFileHashB5cxx11EPKc(ptr noalias sret(%"class.std::__cxx11::basic_string") align 8 %agg.result, ptr noundef nonnull readonly align 8 dereferenceable(88) %this, ptr noundef %filepath) unnamed_addr #0 align 2 personality ptr @__gxx_personality_v0 {
entry:
  %ref.tmp = alloca %"class.std::allocator", align 1
  %fpath = alloca %"class.std::__cxx11::basic_string", align 8
  %ref.tmp2 = alloca %"class.std::__cxx11::basic_string", align 8
  %ref.tmp3 = alloca %"class.std::allocator", align 1
  %ref.tmp19 = alloca %"class.std::__cxx11::basic_string", align 8
  call void @_ZNSaIcEC1Ev(ptr noundef nonnull align 1 dereferenceable(1) %ref.tmp) #15
  invoke void @_ZNSt7__cxx1112basic_stringIcSt11char_traitsIcESaIcEEC1EPKcRKS3_(ptr noundef nonnull align 8 dereferenceable(32) %agg.result, ptr noundef nonnull @.str.15, ptr noundef nonnull align 1 dereferenceable(1) %ref.tmp)
          to label %invoke.cont unwind label %lpad

invoke.cont:                                      ; preds = %entry
  call void @_ZNSaIcED1Ev(ptr noundef nonnull align 1 dereferenceable(1) %ref.tmp) #15
  call void @_ZNSaIcEC1Ev(ptr noundef nonnull align 1 dereferenceable(1) %ref.tmp3) #15
  invoke void @_ZNSt7__cxx1112basic_stringIcSt11char_traitsIcESaIcEEC1EPKcRKS3_(ptr noundef nonnull align 8 dereferenceable(32) %ref.tmp2, ptr noundef %filepath, ptr noundef nonnull align 1 dereferenceable(1) %ref.tmp3)
          to label %invoke.cont5 unwind label %lpad4

invoke.cont5:                                     ; preds = %invoke.cont
  invoke void @_ZN8pystring2os4path8normpathERKNSt7__cxx1112basic_stringIcSt11char_traitsIcESaIcEEE(ptr nonnull sret(%"class.std::__cxx11::basic_string") align 8 %fpath, ptr noundef nonnull align 8 dereferenceable(32) %ref.tmp2)
          to label %invoke.cont7 unwind label %lpad6

invoke.cont7:                                     ; preds = %invoke.cont5
  call void @_ZNSt7__cxx1112basic_stringIcSt11char_traitsIcESaIcEED1Ev(ptr noundef nonnull align 8 dereferenceable(32) %ref.tmp2) #15
  call void @_ZNSaIcED1Ev(ptr noundef nonnull align 1 dereferenceable(1) %ref.tmp3) #15
  %_M_left.i.i = getelementptr inbounds i8, ptr %this, i64 64
  %0 = load ptr, ptr %_M_left.i.i, align 8
  %add.ptr.i.i = getelementptr inbounds i8, ptr %this, i64 48
  %cmp.i.not9 = icmp eq ptr %0, %add.ptr.i.i
  br i1 %cmp.i.not9, label %for.end, label %for.body

for.body:                                         ; preds = %invoke.cont7, %for.inc
  %it.sroa.0.010 = phi ptr [ %call.i, %for.inc ], [ %0, %invoke.cont7 ]
  %_M_storage.i.i = getelementptr inbounds i8, ptr %it.sroa.0.010, i64 32
  %call14 = call noundef ptr @_ZNKSt7__cxx1112basic_stringIcSt11char_traitsIcESaIcEE5c_strEv(ptr noundef nonnull align 8 dereferenceable(32) %_M_storage.i.i) #15
  %call15 = call noundef ptr @_ZNKSt7__cxx1112basic_stringIcSt11char_traitsIcESaIcEE5c_strEv(ptr noundef nonnull align 8 dereferenceable(32) %fpath) #15
  %call18 = invoke i32 @mz_path_compare_wc(ptr noundef %call14, ptr noundef %call15, i8 noundef zeroext 1)
          to label %invoke.cont17 unwind label %lpad16

invoke.cont17:                                    ; preds = %for.body
  %cmp = icmp eq i32 %call18, 0
  br i1 %cmp, label %if.then, label %for.inc

if.then:                                          ; preds = %invoke.cont17
  %second = getelementptr inbounds i8, ptr %it.sroa.0.010, i64 64
  invoke void @_ZNSt7__cxx1112basic_stringIcSt11char_traitsIcESaIcEEC1ERKS4_(ptr noundef nonnull align 8 dereferenceable(32) %ref.tmp19, ptr noundef nonnull align 8 dereferenceable(32) %second)
          to label %invoke.cont21 unwind label %lpad16

invoke.cont21:                                    ; preds = %if.then
  %call22 = call noundef nonnull align 8 dereferenceable(32) ptr @_ZNSt7__cxx1112basic_stringIcSt11char_traitsIcESaIcEEaSEOS4_(ptr noundef nonnull align 8 dereferenceable(32) %agg.result, ptr noundef nonnull align 8 dereferenceable(32) %ref.tmp19) #15
  call void @_ZNSt7__cxx1112basic_stringIcSt11char_traitsIcESaIcEED1Ev(ptr noundef nonnull align 8 dereferenceable(32) %ref.tmp19) #15
  br label %for.inc

lpad:                                             ; preds = %entry
  %1 = landingpad { ptr, i32 }
          cleanup
  call void @_ZNSaIcED1Ev(ptr noundef nonnull align 1 dereferenceable(1) %ref.tmp) #15
  br label %eh.resume

lpad4:                                            ; preds = %invoke.cont
  %2 = landingpad { ptr, i32 }
          cleanup
  br label %ehcleanup

lpad6:                                            ; preds = %invoke.cont5
  %3 = landingpad { ptr, i32 }
          cleanup
  call void @_ZNSt7__cxx1112basic_stringIcSt11char_traitsIcESaIcEED1Ev(ptr noundef nonnull align 8 dereferenceable(32) %ref.tmp2) #15
  br label %ehcleanup

ehcleanup:                                        ; preds = %lpad6, %lpad4
  %.pn = phi { ptr, i32 } [ %3, %lpad6 ], [ %2, %lpad4 ]
  call void @_ZNSaIcED1Ev(ptr noundef nonnull align 1 dereferenceable(1) %ref.tmp3) #15
  br label %ehcleanup25

lpad16:                                           ; preds = %if.then, %for.body
  %4 = landingpad { ptr, i32 }
          cleanup
  call void @_ZNSt7__cxx1112basic_stringIcSt11char_traitsIcESaIcEED1Ev(ptr noundef nonnull align 8 dereferenceable(32) %fpath) #15
  br label %ehcleanup25

for.inc:                                          ; preds = %invoke.cont17, %invoke.cont21
  %call.i = call noundef ptr @_ZSt18_Rb_tree_incrementPKSt18_Rb_tree_node_base(ptr noundef %it.sroa.0.010) #20
  %cmp.i.not = icmp eq ptr %call.i, %add.ptr.i.i
  br i1 %cmp.i.not, label %for.end, label %for.body, !llvm.loop !26

for.end:                                          ; preds = %for.inc, %invoke.cont7
  call void @_ZNSt7__cxx1112basic_stringIcSt11char_traitsIcESaIcEED1Ev(ptr noundef nonnull align 8 dereferenceable(32) %fpath) #15
  ret void

ehcleanup25:                                      ; preds = %lpad16, %ehcleanup
  %.pn2 = phi { ptr, i32 } [ %4, %lpad16 ], [ %.pn, %ehcleanup ]
  call void @_ZNSt7__cxx1112basic_stringIcSt11char_traitsIcESaIcEED1Ev(ptr noundef nonnull align 8 dereferenceable(32) %agg.result) #15
  br label %eh.resume

eh.resume:                                        ; preds = %ehcleanup25, %lpad
  %.pn2.pn = phi { ptr, i32 } [ %.pn2, %ehcleanup25 ], [ %1, %lpad ]
  resume { ptr, i32 } %.pn2.pn
}